target datalayout = "e-m:e-p270:32:32-p271:32:32-p272:64:64-i64:64-i128:128-f80:128-n8:16:32:64-S128"
target triple = "x86_64-pc-linux-gnu"

%struct.mlibSysFnS_t = type { ptr, ptr, ptr }
%struct.JNINativeInterface_ = type { ptr, ptr, ptr, ptr, ptr, ptr, ptr, ptr, ptr, ptr, ptr, ptr, ptr, ptr, ptr, ptr, ptr, ptr, ptr, ptr, ptr, ptr, ptr, ptr, ptr, ptr, ptr, ptr, ptr, ptr, ptr, ptr, ptr, ptr, ptr, ptr, ptr, ptr, ptr, ptr, ptr, ptr, ptr, ptr, ptr, ptr, ptr, ptr, ptr, ptr, ptr, ptr, ptr, ptr, ptr, ptr, ptr, ptr, ptr, ptr, ptr, ptr, ptr, ptr, ptr, ptr, ptr, ptr, ptr, ptr, ptr, ptr, ptr, ptr, ptr, ptr, ptr, ptr, ptr, ptr, ptr, ptr, ptr, ptr, ptr, ptr, ptr, ptr, ptr, ptr, ptr, ptr, ptr, ptr, ptr, ptr, ptr, ptr, ptr, ptr, ptr, ptr, ptr, ptr, ptr, ptr, ptr, ptr, ptr, ptr, ptr, ptr, ptr, ptr, ptr, ptr, ptr, ptr, ptr, ptr, ptr, ptr, ptr, ptr, ptr, ptr, ptr, ptr, ptr, ptr, ptr, ptr, ptr, ptr, ptr, ptr, ptr, ptr, ptr, ptr, ptr, ptr, ptr, ptr, ptr, ptr, ptr, ptr, ptr, ptr, ptr, ptr, ptr, ptr, ptr, ptr, ptr, ptr, ptr, ptr, ptr, ptr, ptr, ptr, ptr, ptr, ptr, ptr, ptr, ptr, ptr, ptr, ptr, ptr, ptr, ptr, ptr, ptr, ptr, ptr, ptr, ptr, ptr, ptr, ptr, ptr, ptr, ptr, ptr, ptr, ptr, ptr, ptr, ptr, ptr, ptr, ptr, ptr, ptr, ptr, ptr, ptr, ptr, ptr, ptr, ptr, ptr, ptr, ptr, ptr, ptr, ptr, ptr, ptr, ptr, ptr, ptr, ptr, ptr, ptr, ptr, ptr, ptr, ptr, ptr, ptr, ptr, ptr, ptr, ptr, ptr, ptr, ptr, ptr, ptr }
%struct.BufImageS_t = type { ptr, %struct.RasterS_t, %struct.ColorModelS_t, %struct.HintS_t, i32 }
%struct.RasterS_t = type { ptr, ptr, ptr, %struct.SPPSampleModelS_t, ptr, i32, i32, i32, i32, i32, i32, i32, i32, i32, i32, i32, i32, i32, i32, i32, i32, i32 }
%struct.SPPSampleModelS_t = type { [32 x i32], [32 x i32], [32 x i32], i32, i32 }
%struct.ColorModelS_t = type { ptr, ptr, ptr, ptr, i32, i32, i32, i32, i32, i32, i32, i32, i32, i32, i32, i32 }
%struct.HintS_t = type { ptr, i32, i32, i32, i32, i32, i32, i32, i32, i32 }

@sMlibSysFns = internal global %struct.mlibSysFnS_t zeroinitializer, align 8

; Function Attrs: nounwind uwtable
define internal void @freeDataArray(ptr noundef %0, ptr noundef %1, ptr noundef %2, ptr noundef %3, ptr noundef %4, ptr noundef %5, ptr noundef %6) #0 {
  %8 = alloca ptr, align 8
  %9 = alloca ptr, align 8
  %10 = alloca ptr, align 8
  %11 = alloca ptr, align 8
  %12 = alloca ptr, align 8
  %13 = alloca ptr, align 8
  %14 = alloca ptr, align 8
  store ptr %0, ptr %8, align 8
  store ptr %1, ptr %9, align 8
  store ptr %2, ptr %10, align 8
  store ptr %3, ptr %11, align 8
  store ptr %4, ptr %12, align 8
  store ptr %5, ptr %13, align 8
  store ptr %6, ptr %14, align 8
  %15 = load ptr, ptr %10, align 8
  %16 = icmp ne ptr %15, null
  br i1 %16, label %17, label %20

17:                                               ; preds = %7
  %18 = load ptr, ptr getelementptr inbounds (%struct.mlibSysFnS_t, ptr @sMlibSysFns, i32 0, i32 2), align 8
  %19 = load ptr, ptr %10, align 8
  call void %18(ptr noundef %19)
  br label %20

20:                                               ; preds = %17, %7
  %21 = load ptr, ptr %11, align 8
  %22 = icmp ne ptr %21, null
  br i1 %22, label %23, label %31

23:                                               ; preds = %20
  %24 = load ptr, ptr %8, align 8
  %25 = load ptr, ptr %24, align 8
  %26 = getelementptr inbounds %struct.JNINativeInterface_, ptr %25, i32 0, i32 223
  %27 = load ptr, ptr %26, align 8
  %28 = load ptr, ptr %8, align 8
  %29 = load ptr, ptr %9, align 8
  %30 = load ptr, ptr %11, align 8
  call void %27(ptr noundef %28, ptr noundef %29, ptr noundef %30, i32 noundef 2)
  br label %31

31:                                               ; preds = %23, %20
  %32 = load ptr, ptr %13, align 8
  %33 = icmp ne ptr %32, null
  br i1 %33, label %34, label %37

34:                                               ; preds = %31
  %35 = load ptr, ptr getelementptr inbounds (%struct.mlibSysFnS_t, ptr @sMlibSysFns, i32 0, i32 2), align 8
  %36 = load ptr, ptr %13, align 8
  call void %35(ptr noundef %36)
  br label %37

37:                                               ; preds = %34, %31
  %38 = load ptr, ptr %14, align 8
  %39 = icmp ne ptr %38, null
  br i1 %39, label %40, label %48

40:                                               ; preds = %37
  %41 = load ptr, ptr %8, align 8
  %42 = load ptr, ptr %41, align 8
  %43 = getelementptr inbounds %struct.JNINativeInterface_, ptr %42, i32 0, i32 223
  %44 = load ptr, ptr %43, align 8
  %45 = load ptr, ptr %8, align 8
  %46 = load ptr, ptr %12, align 8
  %47 = load ptr, ptr %14, align 8
  call void %44(ptr noundef %45, ptr noundef %46, ptr noundef %47, i32 noundef 0)
  br label %48

48:                                               ; preds = %40, %37
  ret void
}

; Function Attrs: nounwind uwtable
define internal void @freeArray(ptr noundef %0, ptr noundef %1, ptr noundef %2, ptr noundef %3, ptr noundef %4, ptr noundef %5, ptr noundef %6) #0 {
  %8 = alloca ptr, align 8
  %9 = alloca ptr, align 8
  %10 = alloca ptr, align 8
  %11 = alloca ptr, align 8
  %12 = alloca ptr, align 8
  %13 = alloca ptr, align 8
  %14 = alloca ptr, align 8
  %15 = alloca ptr, align 8
  %16 = alloca ptr, align 8
  store ptr %0, ptr %8, align 8
  store ptr %1, ptr %9, align 8
  store ptr %2, ptr %10, align 8
  store ptr %3, ptr %11, align 8
  store ptr %4, ptr %12, align 8
  store ptr %5, ptr %13, align 8
  store ptr %6, ptr %14, align 8
  %17 = load ptr, ptr %9, align 8
  %18 = icmp ne ptr %17, null
  br i1 %18, label %19, label %24

19:                                               ; preds = %7
  %20 = load ptr, ptr %9, align 8
  %21 = getelementptr inbounds %struct.BufImageS_t, ptr %20, i32 0, i32 1
  %22 = getelementptr inbounds %struct.RasterS_t, ptr %21, i32 0, i32 1
  %23 = load ptr, ptr %22, align 8
  br label %25

24:                                               ; preds = %7
  br label %25

25:                                               ; preds = %24, %19
  %26 = phi ptr [ %23, %19 ], [ null, %24 ]
  store ptr %26, ptr %15, align 8
  %27 = load ptr, ptr %12, align 8
  %28 = icmp ne ptr %27, null
  br i1 %28, label %29, label %34

29:                                               ; preds = %25
  %30 = load ptr, ptr %12, align 8
  %31 = getelementptr inbounds %struct.BufImageS_t, ptr %30, i32 0, i32 1
  %32 = getelementptr inbounds %struct.RasterS_t, ptr %31, i32 0, i32 1
  %33 = load ptr, ptr %32, align 8
  br label %35

34:                                               ; preds = %25
  br label %35

35:                                               ; preds = %34, %29
  %36 = phi ptr [ %33, %29 ], [ null, %34 ]
  store ptr %36, ptr %16, align 8
  %37 = load ptr, ptr %8, align 8
  %38 = load ptr, ptr %15, align 8
  %39 = load ptr, ptr %10, align 8
  %40 = load ptr, ptr %11, align 8
  %41 = load ptr, ptr %16, align 8
  %42 = load ptr, ptr %13, align 8
  %43 = load ptr, ptr %14, align 8
  call void @freeDataArray(ptr noundef %37, ptr noundef %38, ptr noundef %39, ptr noundef %40, ptr noundef %41, ptr noundef %42, ptr noundef %43)
  ret void
}