; Function Attrs: nounwind uwtable
define internal fastcc void @freeArray(ptr noundef %0, ptr noundef readonly %1, ptr noundef %2, ptr noundef %3, ptr noundef readonly %4, ptr noundef %5, ptr noundef %6) unnamed_addr #0 {
  %.not = icmp eq ptr %1, null
  br i1 %.not, label %11, label %8

8:                                                ; preds = %7
  %9 = getelementptr inbounds i8, ptr %1, i64 16
  %10 = load ptr, ptr %9, align 8
  br label %11

11:                                               ; preds = %7, %8
  %12 = phi ptr [ %10, %8 ], [ null, %7 ]
  %.not12 = icmp eq ptr %4, null
  br i1 %.not12, label %16, label %13

13:                                               ; preds = %11
  %14 = getelementptr inbounds i8, ptr %4, i64 16
  %15 = load ptr, ptr %14, align 8
  br label %16

16:                                               ; preds = %11, %13
  %17 = phi ptr [ %15, %13 ], [ null, %11 ]
  %.not.i = icmp eq ptr %2, null
  br i1 %.not.i, label %20, label %18

18:                                               ; preds = %16
  %19 = load ptr, ptr getelementptr inbounds (i8, ptr @sMlibSysFns, i64 16), align 8
  tail call void %19(ptr noundef nonnull %2) #13
  br label %20

20:                                               ; preds = %18, %16
  %.not17.i = icmp eq ptr %3, null
  br i1 %.not17.i, label %25, label %21

21:                                               ; preds = %20
  %22 = load ptr, ptr %0, align 8
  %23 = getelementptr inbounds i8, ptr %22, i64 1784
  %24 = load ptr, ptr %23, align 8
  tail call void %24(ptr noundef nonnull %0, ptr noundef %12, ptr noundef nonnull %3, i32 noundef 2) #13
  br label %25

25:                                               ; preds = %21, %20
  %.not18.i = icmp eq ptr %5, null
  br i1 %.not18.i, label %28, label %26

26:                                               ; preds = %25
  %27 = load ptr, ptr getelementptr inbounds (i8, ptr @sMlibSysFns, i64 16), align 8
  tail call void %27(ptr noundef nonnull %5) #13
  br label %28

28:                                               ; preds = %26, %25
  %.not19.i = icmp eq ptr %6, null
  br i1 %.not19.i, label %freeDataArray.exit, label %29

29:                                               ; preds = %28
  %30 = load ptr, ptr %0, align 8
  %31 = getelementptr inbounds i8, ptr %30, i64 1784
  %32 = load ptr, ptr %31, align 8
  tail call void %32(ptr noundef nonnull %0, ptr noundef %17, ptr noundef nonnull %6, i32 noundef 0) #13
  br label %freeDataArray.exit

freeDataArray.exit:                               ; preds = %28, %29
  ret void
}